(dp0
S'aa'
p1
F-1.0
sS'traj_dt'
p2
F0.01
sS'traj_tmax'
p3
F10.0
sS'bath'
p4
S'ohmic'
p5
sS'beta'
p6
F5.0
sS'traj_tot'
p7
I2000
sS'delta'
p8
F1.0
sS'omega_c'
p9
F2.5
sS'coupling'
p10
F0.10000000000000001
sS'bias'
p11
F1.0
sS'nosc'
p12
I300
s.